(dp1
S'files'
p2
(dp3
S'_dokumente und einstellungen_stephan kienzle_eigene dateien_workspace_selexe_selexe_selexe_runner'
p4
(dp5
S'index'
p6
(dp7
S'par'
p8
I0
sS'html_filename'
p9
S'_dokumente und einstellungen_stephan kienzle_eigene dateien_workspace_selexe_selexe_selexe_runner.html'
p10
sS'name'
p11
S'c:\\dokumente und einstellungen\\stephan kienzle\\eigene dateien\\workspace\\selexe\\selexe\\selexe_runner'
p12
sS'nums'
p13
ccopy_reg
_reconstructor
p14
(ccoverage.results
Numbers
p15
c__builtin__
object
p16
NtRp17
(dp18
S'n_files'
p19
I1
sS'n_branches'
p20
I0
sS'n_statements'
p21
I80
sS'n_excluded'
p22
I0
sS'n_missing'
p23
I65
sS'n_missing_branches'
p24
I0
sbssS'hash'
p25
S'k3\x18\xbe1\x8a\x12a\x9c\x07\xde\xfd\xf2"\xceZ'
p26
ssS'_dokumente und einstellungen_stephan kienzle_eigene dateien_workspace_selexe_selexe_userfunctions'
p27
(dp28
g6
(dp29
S'par'
p30
I0
sS'html_filename'
p31
S'_dokumente und einstellungen_stephan kienzle_eigene dateien_workspace_selexe_selexe_userfunctions.html'
p32
sS'name'
p33
S'c:\\dokumente und einstellungen\\stephan kienzle\\eigene dateien\\workspace\\selexe\\selexe\\userfunctions'
p34
sS'nums'
p35
g14
(g15
g16
NtRp36
(dp37
g19
I1
sg20
I0
sg21
I37
sg22
I0
sg23
I25
sg24
I0
sbssg25
S'u\x83L\xfb.\xf6\xd4nB{\xc9i\xdb\x0e\xb4\xc1'
p38
ssS'_dokumente und einstellungen_stephan kienzle_eigene dateien_workspace_selexe_selexe_html2text'
p39
(dp40
g6
(dp41
S'par'
p42
I0
sS'html_filename'
p43
S'_dokumente und einstellungen_stephan kienzle_eigene dateien_workspace_selexe_selexe_html2text.html'
p44
sS'name'
p45
S'c:\\dokumente und einstellungen\\stephan kienzle\\eigene dateien\\workspace\\selexe\\selexe\\html2text'
p46
sS'nums'
p47
g14
(g15
g16
NtRp48
(dp49
g19
I1
sg20
I0
sg21
I550
sg22
I0
sg23
I309
sg24
I0
sbssg25
S'M5\xe7\xce\xde\xe8M\xcc\xfe:\xba\r\xc2M\xccp'
p50
ssS'_dokumente und einstellungen_stephan kienzle_eigene dateien_workspace_selexe_selexe_cmdargs'
p51
(dp52
g6
(dp53
g30
I0
sg31
S'_dokumente und einstellungen_stephan kienzle_eigene dateien_workspace_selexe_selexe_cmdargs.html'
p54
sg33
S'c:\\dokumente und einstellungen\\stephan kienzle\\eigene dateien\\workspace\\selexe\\selexe\\cmdargs'
p55
sg35
g14
(g15
g16
NtRp56
(dp57
g19
I1
sg20
I0
sg21
I16
sg22
I0
sg23
I11
sg24
I0
sbssg25
S'i\x06y)\xa5\x86\xc2\xbdx4O\xd1m\xf5\xc8\xf0'
p58
ssS'_dokumente und einstellungen_stephan kienzle_eigene dateien_workspace_selexe_selexe___init__'
p59
(dp60
g6
(dp61
g30
I0
sg31
S'_dokumente und einstellungen_stephan kienzle_eigene dateien_workspace_selexe_selexe___init__.html'
p62
sg33
S'c:\\dokumente und einstellungen\\stephan kienzle\\eigene dateien\\workspace\\selexe\\selexe\\__init__'
p63
sg35
g14
(g15
g16
NtRp64
(dp65
g19
I1
sg20
I0
sg21
I5
sg22
I0
sg23
I0
sg24
I0
sbssg25
S'7\xcb\nWw\xe2\xa7X\x03\xc4F9\xc3\xaepx'
p66
ssS'_dokumente und einstellungen_stephan kienzle_eigene dateien_workspace_selexe_selexe_parse_sel'
p67
(dp68
g6
(dp69
g8
I0
sg9
S'_dokumente und einstellungen_stephan kienzle_eigene dateien_workspace_selexe_selexe_parse_sel.html'
p70
sg11
S'c:\\dokumente und einstellungen\\stephan kienzle\\eigene dateien\\workspace\\selexe\\selexe\\parse_sel'
p71
sg13
g14
(g15
g16
NtRp72
(dp73
g19
I1
sg20
I0
sg21
I22
sg22
I0
sg23
I15
sg24
I0
sbssg25
S'\x8f\xfb3YR\x9f)\xe5q\xb9Vp\xa2\xa1?4'
p74
ssS'_dokumente und einstellungen_stephan kienzle_eigene dateien_workspace_selexe_selexe_selenium_driver'
p75
(dp76
g6
(dp77
S'par'
p78
I0
sS'html_filename'
p79
S'_dokumente und einstellungen_stephan kienzle_eigene dateien_workspace_selexe_selexe_selenium_driver.html'
p80
sS'name'
p81
S'c:\\dokumente und einstellungen\\stephan kienzle\\eigene dateien\\workspace\\selexe\\selexe\\selenium_driver'
p82
sS'nums'
p83
g14
(g15
g16
NtRp84
(dp85
g19
I1
sg20
I0
sg21
I395
sg22
I0
sg23
I11
sg24
I0
sbssg25
S'\xd66\xb6\xddT\xe6\x9f\xb4\xa3v\x99n\xf52\x9dI'
p86
ssS'_dokumente und einstellungen_stephan kienzle_eigene dateien_workspace_selexe_selexe_webdriver_sample'
p87
(dp88
g6
(dp89
g30
I0
sg31
S'_dokumente und einstellungen_stephan kienzle_eigene dateien_workspace_selexe_selexe_webdriver_sample.html'
p90
sg33
S'c:\\dokumente und einstellungen\\stephan kienzle\\eigene dateien\\workspace\\selexe\\selexe\\webdriver_sample'
p91
sg35
g14
(g15
g16
NtRp92
(dp93
g19
I1
sg20
I0
sg21
I15
sg22
I0
sg23
I15
sg24
I0
sbssg25
S'\x80\x17rm\xe4\x8d\xef@K\xf8\xb7f\x90r89'
p94
sssS'version'
p95
S'3.5.1'
p96
sS'settings'
p97
S'\xdd4C\xb8.RC\x1c;\xe5\t\x91\xbcPx\xc3'
p98
sS'format'
p99
I1
s.